; Function Attrs: nounwind uwtable
define dso_local void @acct_policy_job_fini(ptr noundef %0, i1 noundef zeroext %1) local_unnamed_addr #0 {
  %3 = getelementptr inbounds nuw i8, ptr %0, i64 240
  %4 = load i64, ptr %3, align 8
  %.not = icmp eq i64 %4, 4294967294
  br i1 %.not, label %6, label %5

5:                                                ; preds = %2
  tail call fastcc void @_adjust_limit_usage(i32 noundef 3, ptr noundef nonnull %0, i1 noundef zeroext %1)
  br label %10

6:                                                ; preds = %2
  %7 = tail call i32 @get_log_level() #15
  %8 = icmp sgt i32 %7, 5
  br i1 %8, label %9, label %10

9:                                                ; preds = %6
  tail call void (i32, ptr, ...) @log_var(i32 noundef 6, ptr noundef nonnull @.str, ptr noundef nonnull %0) #15
  br label %10

10:                                               ; preds = %6, %9, %5
  ret void
}